; Function Attrs: mustprogress uwtable
define hidden noundef zeroext i1 @_ZN4cvc58internal13preprocessing4util12ITEUtilities8compressEPNS1_17AssertionPipelineE(ptr noundef nonnull align 8 captures(none) dereferenceable(48) %0, ptr noundef %1) local_unnamed_addr #3 align 2 personality ptr @__gxx_personality_v0 {
  %3 = getelementptr inbounds nuw i8, ptr %0, i64 24
  %4 = load ptr, ptr %3, align 8, !tbaa !33
  %5 = icmp eq ptr %4, null
  br i1 %5, label %6, label %15

6:                                                ; preds = %2
  %7 = tail call noalias noundef nonnull dereferenceable(184) ptr @_Znwm(i64 noundef 184) #27
  %8 = getelementptr inbounds nuw i8, ptr %0, i64 8
  %9 = load ptr, ptr %8, align 8, !tbaa !35
  %10 = getelementptr inbounds nuw i8, ptr %0, i64 16
  %11 = load ptr, ptr %10, align 8, !tbaa !18
  invoke void @_ZN4cvc58internal13preprocessing4util13ITECompressorC2ERNS0_3EnvEPNS2_22ContainsTermITEVisitorE(ptr noundef nonnull align 8 dereferenceable(184) %7, ptr noundef nonnull align 8 dereferenceable(696) %9, ptr noundef %11)
          to label %12 unwind label %13

12:                                               ; preds = %6
  store ptr %7, ptr %3, align 8, !tbaa !33
  br label %15

13:                                               ; preds = %6
  %14 = landingpad { ptr, i32 }
          cleanup
  tail call void @_ZdlPvm(ptr noundef nonnull %7, i64 noundef 184) #29
  resume { ptr, i32 } %14

15:                                               ; preds = %12, %2
  %16 = phi ptr [ %7, %12 ], [ %4, %2 ]
  %17 = tail call noundef zeroext i1 @_ZN4cvc58internal13preprocessing4util13ITECompressor8compressEPNS1_17AssertionPipelineE(ptr noundef nonnull align 8 dereferenceable(184) %16, ptr noundef %1)
  ret i1 %17
}